; Function Attrs: nounwind uwtable
define internal range(i32 -1, 1) i32 @H5C__json_write_remove_entry_log_msg(ptr noundef readonly captures(none) %0, ptr noundef readonly captures(none) %1, i32 noundef %2) #0 {
  %4 = load i8, ptr @H5C_init_g, align 1, !tbaa !3, !range !7, !noundef !8
  %5 = trunc nuw i8 %4 to i1
  %6 = load i8, ptr @H5_libterm_g, align 1, !range !7
  %7 = trunc nuw i8 %6 to i1
  %8 = xor i1 %7, true
  %9 = select i1 %5, i1 true, i1 %8
  br i1 %9, label %10, label %H5C__json_write_log_message.exit.thread, !prof !9

10:                                               ; preds = %3
  %11 = getelementptr inbounds nuw i8, ptr %0, i64 8
  %12 = load ptr, ptr %11, align 8, !tbaa !15
  %13 = tail call i64 @time(ptr noundef null) #10
  %14 = getelementptr inbounds nuw i8, ptr %1, i64 8
  %15 = load i64, ptr %14, align 8, !tbaa !22
  %16 = tail call i32 (ptr, i64, ptr, ...) @snprintf(ptr noundef nonnull dereferenceable(1) %12, i64 noundef 1024, ptr noundef nonnull @.str.34, i64 noundef %13, i64 noundef %15, i32 noundef %2) #10
  %17 = load i8, ptr @H5C_init_g, align 1, !tbaa !3, !range !7, !noundef !8
  %18 = trunc nuw i8 %17 to i1
  %19 = load i8, ptr @H5_libterm_g, align 1, !range !7
  %20 = trunc nuw i8 %19 to i1
  %21 = xor i1 %20, true
  %22 = select i1 %18, i1 true, i1 %21
  br i1 %22, label %23, label %H5C__json_write_log_message.exit.thread, !prof !9

23:                                               ; preds = %10
  %24 = load ptr, ptr %11, align 8, !tbaa !15
  %25 = tail call i64 @strlen(ptr noundef nonnull dereferenceable(1) %24) #11
  %26 = trunc i64 %25 to i32
  %27 = load ptr, ptr %0, align 8, !tbaa !21
  %28 = tail call i32 (ptr, ptr, ...) @fprintf(ptr noundef %27, ptr noundef nonnull @.str.3, ptr noundef nonnull %24) #10
  %.not.i = icmp eq i32 %28, %26
  br i1 %.not.i, label %29, label %31

29:                                               ; preds = %23
  %30 = load ptr, ptr %11, align 8, !tbaa !15
  tail call void @llvm.memset.p0.i64(ptr align 1 %30, i8 0, i64 %25, i1 false)
  br label %H5C__json_write_log_message.exit.thread

31:                                               ; preds = %23
  %32 = load i64, ptr @H5E_CACHE_g, align 8, !tbaa !19
  %33 = load i64, ptr @H5E_LOGGING_g, align 8, !tbaa !19
  %34 = tail call i32 (ptr, ptr, i32, i64, i64, ptr, ...) @H5E_printf_stack(ptr noundef nonnull @.str, ptr noundef nonnull @__func__.H5C__json_write_log_message, i32 noundef 173, i64 noundef %32, i64 noundef %33, ptr noundef nonnull @.str.11) #10
  %35 = load i64, ptr @H5E_CACHE_g, align 8, !tbaa !19
  %36 = load i64, ptr @H5E_LOGGING_g, align 8, !tbaa !19
  %37 = tail call i32 (ptr, ptr, i32, i64, i64, ptr, ...) @H5E_printf_stack(ptr noundef nonnull @.str, ptr noundef nonnull @__func__.H5C__json_write_remove_entry_log_msg, i32 noundef 1229, i64 noundef %35, i64 noundef %36, ptr noundef nonnull @.str.10) #10
  br label %H5C__json_write_log_message.exit.thread

H5C__json_write_log_message.exit.thread:          ; preds = %10, %29, %31, %3
  %.0 = phi i32 [ -1, %31 ], [ 0, %3 ], [ 0, %29 ], [ 0, %10 ]
  ret i32 %.0
}